; Function Attrs: nounwind uwtable
define dso_local range(i32 -1, 1) i32 @PyRun_SimpleFile(ptr noundef %0, ptr noundef %1) local_unnamed_addr #0 {
  %3 = tail call ptr @PyUnicode_DecodeFSDefault(ptr noundef %1) #8
  %4 = icmp eq ptr %3, null
  br i1 %4, label %PyRun_SimpleFileExFlags.exit, label %5

5:                                                ; preds = %2
  %6 = tail call i32 @_PyRun_SimpleFileObject(ptr noundef %0, ptr noundef nonnull %3, i32 noundef 0, ptr noundef null)
  %7 = load i32, ptr %3, align 8, !tbaa !9
  %.not.i.i = icmp sgt i32 %7, -1
  br i1 %.not.i.i, label %8, label %PyRun_SimpleFileExFlags.exit

8:                                                ; preds = %5
  %9 = add nsw i32 %7, -1
  store i32 %9, ptr %3, align 8, !tbaa !9
  %10 = icmp eq i32 %9, 0
  br i1 %10, label %11, label %PyRun_SimpleFileExFlags.exit

11:                                               ; preds = %8
  tail call void @_Py_Dealloc(ptr noundef nonnull %3) #8
  br label %PyRun_SimpleFileExFlags.exit

PyRun_SimpleFileExFlags.exit:                     ; preds = %2, %5, %8, %11
  %.0.i = phi i32 [ -1, %2 ], [ %6, %5 ], [ %6, %8 ], [ %6, %11 ]
  ret i32 %.0.i
}